target datalayout = "e-m:e-p270:32:32-p271:32:32-p272:64:64-i64:64-i128:128-f80:128-n8:16:32:64-S128"
target triple = "x86_64-unknown-linux-gnu"

%struct.UStringSearch = type { ptr, %struct.UPattern, ptr, ptr, ptr, ptr, ptr, i8, i32, i32, i32, i8 }
%struct.UPattern = type { ptr, i32, i32, ptr, [256 x i32], i32, ptr, [256 x i64], i8, i8 }

; Function Attrs: mustprogress nounwind uwtable
define ptr @usearch_getPattern_75(ptr noundef %strsrch, ptr noundef %length) #1 {
entry:
  %retval = alloca ptr, align 8
  %strsrch.addr = alloca ptr, align 8
  %length.addr = alloca ptr, align 8
  store ptr %strsrch, ptr %strsrch.addr, align 8
  store ptr %length, ptr %length.addr, align 8
  %0 = load ptr, ptr %strsrch.addr, align 8
  %tobool = icmp ne ptr %0, null
  br i1 %tobool, label %if.then, label %if.end

if.then:                                          ; preds = %entry
  %1 = load ptr, ptr %strsrch.addr, align 8
  %pattern = getelementptr inbounds %struct.UStringSearch, ptr %1, i32 0, i32 1
  %textLength = getelementptr inbounds %struct.UPattern, ptr %pattern, i32 0, i32 1
  %2 = load i32, ptr %textLength, align 8
  %3 = load ptr, ptr %length.addr, align 8
  store i32 %2, ptr %3, align 4
  %4 = load ptr, ptr %strsrch.addr, align 8
  %pattern1 = getelementptr inbounds %struct.UStringSearch, ptr %4, i32 0, i32 1
  %text = getelementptr inbounds %struct.UPattern, ptr %pattern1, i32 0, i32 0
  %5 = load ptr, ptr %text, align 8
  store ptr %5, ptr %retval, align 8
  br label %return

if.end:                                           ; preds = %entry
  store ptr null, ptr %retval, align 8
  br label %return

return:                                           ; preds = %if.end, %if.then
  %6 = load ptr, ptr %retval, align 8
  ret ptr %6
}