; Function Attrs: mustprogress nofree norecurse nosync nounwind willreturn memory(argmem: readwrite) uwtable
define ptr @usearch_getPattern_75(ptr noundef readonly %strsrch, ptr nocapture noundef writeonly %length) local_unnamed_addr #9 {
entry:
  %tobool.not = icmp eq ptr %strsrch, null
  br i1 %tobool.not, label %return, label %if.then

if.then:                                          ; preds = %entry
  %pattern = getelementptr inbounds i8, ptr %strsrch, i64 8
  %textLength = getelementptr inbounds i8, ptr %strsrch, i64 16
  %0 = load i32, ptr %textLength, align 8
  store i32 %0, ptr %length, align 4
  %1 = load ptr, ptr %pattern, align 8
  br label %return

return:                                           ; preds = %entry, %if.then
  %retval.0 = phi ptr [ %1, %if.then ], [ null, %entry ]
  ret ptr %retval.0
}